target datalayout = "e-m:e-p270:32:32-p271:32:32-p272:64:64-i64:64-i128:128-f80:128-n8:16:32:64-S128"
target triple = "x86_64-pc-linux-gnu"

%struct.job_record = type { i32, ptr, ptr, ptr, ptr, i16, i32, i32, i32, ptr, i32, ptr, ptr, i16, ptr, double, i64, ptr, ptr, ptr, ptr, ptr, ptr, i32, ptr, i32, i64, i64, i32, i32, ptr, i16, i64, i64, i8, i32, ptr, ptr, ptr, ptr, ptr, ptr, ptr, ptr, i32, ptr, ptr, i32, ptr, i32, ptr, i32, ptr, i32, ptr, ptr, ptr, ptr, ptr, ptr, i32, i16, i64, ptr, ptr, ptr, ptr, %struct.acct_policy_limit_set_t, i16, ptr, ptr, ptr, ptr, ptr, i32, ptr, ptr, ptr, ptr, ptr, i32, i32, ptr, ptr, ptr, i16, ptr, ptr, i8, ptr, ptr, i64, i64, i8, i32, i32, i8, i32, ptr, i32, i64, i32, ptr, ptr, ptr, i8, i16, i64, i32, ptr, ptr, ptr, ptr, ptr, i16, i32, ptr, ptr, ptr, ptr, i32, ptr, i32, i16, i64, ptr, i32, i32, ptr, i64, ptr, ptr, i64, i32, i32, i64, i32, i32, ptr, ptr, ptr, ptr, ptr, ptr, ptr, ptr, ptr, ptr, ptr, ptr, i32, ptr, i16, i16, i16, i16, ptr, i32, i32, i8, i64 }
%struct.acct_policy_limit_set_t = type { i16, i16, ptr }
%struct.job_details_t = type { i32, ptr, i64, ptr, i32, ptr, i64, ptr, i16, i16, ptr, i16, i32, i32, i32, i16, ptr, i16, ptr, ptr, ptr, i16, ptr, ptr, ptr, ptr, i32, ptr, ptr, ptr, ptr, ptr, i32, i32, i32, ptr, ptr, i16, i32, i32, i32, i32, i32, i32, i16, i16, i32, i8, i8, i32, i32, i64, i64, i16, i32, ptr, ptr, i8, ptr, i32, ptr, i64, ptr, ptr, i16, i16, i16, i8, ptr, ptr, ptr, ptr, ptr, ptr, i64, i32, i32, i8, ptr, i16, ptr, ptr, i16 }

@lowest_prio = internal global i32 -65536, align 4

; Function Attrs: nounwind uwtable
define dso_local void @set_job_prio(ptr noundef %0) #0 {
  %2 = alloca ptr, align 8
  %3 = alloca i32, align 4
  %4 = alloca i32, align 4
  %5 = alloca i64, align 8
  store ptr %0, ptr %2, align 8
  call void @llvm.lifetime.start.p0(i64 4, ptr %3) #13
  %6 = load ptr, ptr %2, align 8
  %7 = getelementptr inbounds nuw %struct.job_record, ptr %6, i32 0, i32 60
  %8 = load i32, ptr %7, align 8
  %9 = and i32 %8, 255
  %10 = icmp ugt i32 %9, 2
  br i1 %10, label %11, label %12

11:                                               ; preds = %1
  store i32 1, ptr %4, align 4
  br label %68

12:                                               ; preds = %1
  %13 = load i32, ptr @lowest_prio, align 4
  %14 = load ptr, ptr %2, align 8
  %15 = call i32 @priority_g_set(i32 noundef %13, ptr noundef %14)
  %16 = load ptr, ptr %2, align 8
  %17 = getelementptr inbounds nuw %struct.job_record, ptr %16, i32 0, i32 97
  store i32 %15, ptr %17, align 8
  %18 = load ptr, ptr %2, align 8
  %19 = getelementptr inbounds nuw %struct.job_record, ptr %18, i32 0, i32 97
  %20 = load i32, ptr %19, align 8
  %21 = icmp eq i32 %20, 0
  br i1 %21, label %28, label %22

22:                                               ; preds = %12
  %23 = load ptr, ptr %2, align 8
  %24 = getelementptr inbounds nuw %struct.job_record, ptr %23, i32 0, i32 31
  %25 = load i16, ptr %24, align 8
  %26 = zext i16 %25 to i32
  %27 = icmp ne i32 %26, 0
  br i1 %27, label %28, label %29

28:                                               ; preds = %22, %12
  store i32 1, ptr %4, align 4
  br label %68

29:                                               ; preds = %22
  %30 = load ptr, ptr %2, align 8
  %31 = getelementptr inbounds nuw %struct.job_record, ptr %30, i32 0, i32 97
  %32 = load i32, ptr %31, align 8
  store i32 %32, ptr %3, align 4
  %33 = load ptr, ptr %2, align 8
  %34 = getelementptr inbounds nuw %struct.job_record, ptr %33, i32 0, i32 30
  %35 = load ptr, ptr %34, align 8
  %36 = icmp ne ptr %35, null
  br i1 %36, label %37, label %58

37:                                               ; preds = %29
  %38 = load ptr, ptr %2, align 8
  %39 = getelementptr inbounds nuw %struct.job_record, ptr %38, i32 0, i32 30
  %40 = load ptr, ptr %39, align 8
  %41 = getelementptr inbounds nuw %struct.job_details_t, ptr %40, i32 0, i32 43
  %42 = load i32, ptr %41, align 8
  %43 = icmp ne i32 %42, -2147483648
  br i1 %43, label %44, label %58

44:                                               ; preds = %37
  call void @llvm.lifetime.start.p0(i64 8, ptr %5) #13
  %45 = load ptr, ptr %2, align 8
  %46 = getelementptr inbounds nuw %struct.job_record, ptr %45, i32 0, i32 30
  %47 = load ptr, ptr %46, align 8
  %48 = getelementptr inbounds nuw %struct.job_details_t, ptr %47, i32 0, i32 43
  %49 = load i32, ptr %48, align 8
  %50 = zext i32 %49 to i64
  store i64 %50, ptr %5, align 8
  %51 = load i64, ptr %5, align 8
  %52 = sub nsw i64 %51, 2147483648
  store i64 %52, ptr %5, align 8
  %53 = load i64, ptr %5, align 8
  %54 = load i32, ptr %3, align 4
  %55 = zext i32 %54 to i64
  %56 = add nsw i64 %55, %53
  %57 = trunc i64 %56 to i32
  store i32 %57, ptr %3, align 4
  call void @llvm.lifetime.end.p0(i64 8, ptr %5) #13
  br label %58

58:                                               ; preds = %44, %37, %29
  %59 = load i32, ptr %3, align 4
  %60 = load i32, ptr @lowest_prio, align 4
  %61 = icmp ult i32 %59, %60
  br i1 %61, label %62, label %64

62:                                               ; preds = %58
  %63 = load i32, ptr %3, align 4
  br label %66

64:                                               ; preds = %58
  %65 = load i32, ptr @lowest_prio, align 4
  br label %66

66:                                               ; preds = %64, %62
  %67 = phi i32 [ %63, %62 ], [ %65, %64 ]
  store i32 %67, ptr @lowest_prio, align 4
  store i32 0, ptr %4, align 4
  br label %68

68:                                               ; preds = %66, %28, %11
  call void @llvm.lifetime.end.p0(i64 4, ptr %3) #13
  %69 = load i32, ptr %4, align 4
  switch i32 %69, label %71 [
    i32 0, label %70
    i32 1, label %70
  ]

70:                                               ; preds = %68, %68
  ret void

71:                                               ; preds = %68
  unreachable
}