; Function Attrs: nounwind uwtable
define dso_local void @set_job_prio(ptr noundef %0) local_unnamed_addr #0 {
  %2 = getelementptr inbounds nuw i8, ptr %0, i64 448
  %3 = load i32, ptr %2, align 8
  %4 = and i32 %3, 255
  %5 = icmp samesign ugt i32 %4, 2
  br i1 %5, label %26, label %6

6:                                                ; preds = %1
  %7 = load i32, ptr @lowest_prio, align 4
  %8 = tail call i32 @priority_g_set(i32 noundef %7, ptr noundef nonnull %0) #27
  %9 = getelementptr inbounds nuw i8, ptr %0, i64 720
  store i32 %8, ptr %9, align 8
  %10 = icmp eq i32 %8, 0
  br i1 %10, label %26, label %11

11:                                               ; preds = %6
  %12 = getelementptr inbounds nuw i8, ptr %0, i64 224
  %13 = load i16, ptr %12, align 8
  %.not = icmp eq i16 %13, 0
  br i1 %.not, label %14, label %26

14:                                               ; preds = %11
  %15 = getelementptr inbounds nuw i8, ptr %0, i64 216
  %16 = load ptr, ptr %15, align 8
  %.not16 = icmp eq ptr %16, null
  br i1 %.not16, label %23, label %17

17:                                               ; preds = %14
  %18 = getelementptr inbounds nuw i8, ptr %16, i64 288
  %19 = load i32, ptr %18, align 8
  %.not17 = icmp eq i32 %19, -2147483648
  br i1 %.not17, label %23, label %20

20:                                               ; preds = %17
  %21 = xor i32 %19, -2147483648
  %22 = add i32 %21, %8
  br label %23

23:                                               ; preds = %20, %17, %14
  %.0 = phi i32 [ %22, %20 ], [ %8, %17 ], [ %8, %14 ]
  %24 = load i32, ptr @lowest_prio, align 4
  %25 = tail call i32 @llvm.umin.i32(i32 %.0, i32 %24)
  store i32 %25, ptr @lowest_prio, align 4
  br label %26

26:                                               ; preds = %6, %11, %1, %23
  ret void
}